
Allocating common symbols
Common symbol       size              file

mousedata0          0x4               mouse.o
keyfifo             0x4               keyboard.o
taskctl             0x4               mtask.o
timerctl            0x271c            timer.o
mousefifo           0x4               mouse.o
task_timer          0x4               mtask.o
keydata0            0x4               keyboard.o

Discarded input sections

 .eh_frame      0x0000000000000000       0x50 bootpack.o
 .eh_frame      0x0000000000000000      0x140 console.o
 .eh_frame      0x0000000000000000       0x78 dsctbl.o
 .eh_frame      0x0000000000000000       0x98 fifo.o
 .eh_frame      0x0000000000000000       0x78 file.o
 .eh_frame      0x0000000000000000      0x148 graphic.o
 .eh_frame      0x0000000000000000       0x58 int.o
 .eh_frame      0x0000000000000000       0x78 keyboard.o
 .eh_frame      0x0000000000000000       0x58 libs.o
 .eh_frame      0x0000000000000000      0x124 memory.o
 .eh_frame      0x0000000000000000       0x78 mouse.o
 .eh_frame      0x0000000000000000      0x154 mtask.o
 .eh_frame      0x0000000000000000      0x15c sheet.o
 .eh_frame      0x0000000000000000       0xd8 timer.o
 .eh_frame      0x0000000000000000       0xf8 tsprintf.o
 .eh_frame      0x0000000000000000       0x88 window.o

Memory Configuration

Name             Origin             Length             Attributes
*default*        0x0000000000000000 0xffffffffffffffff

Linker script and memory map


.head           0x0000000000000000       0x24
                0x0000000000000000        0x4 LONG 0x10000
                0x0000000000000004        0x4 LONG 0x69726148
                0x0000000000000008        0x4 LONG 0x0
                0x000000000000000c        0x4 LONG 0x310000
                0x0000000000000010        0x4 LONG 0x2296 SIZEOF (.data)
                0x0000000000000014        0x4 LONG 0x4903 LOADADDR (.data)
                0x0000000000000018        0x4 LONG 0xe9000000
                0x000000000000001c        0x4 LONG 0x105 (hari_main - 0x20)
                0x0000000000000020        0x4 LONG 0x1

.text           0x0000000000000030     0x48d3
 *(.text)
 .text          0x0000000000000030      0xaae bootpack.o
                0x0000000000000030                task_b_main
                0x0000000000000125                hari_main
 .text          0x0000000000000ade      0xb9f console.o
                0x0000000000000ade                console_task
                0x0000000000000e86                cons_putchar
                0x0000000000000f8e                cons_newline
                0x0000000000001096                cons_runcmd
                0x00000000000011c5                cmd_mem
                0x0000000000001288                cmd_clear
                0x0000000000001306                cmd_ls
                0x000000000000145a                cmd_cat
                0x000000000000156a                cmd_hlt
 .text          0x000000000000167d      0x217 dsctbl.o
                0x000000000000167d                init_gdtidt
                0x00000000000017d4                set_segmdesc
                0x000000000000184f                set_gatedesc
 .text          0x0000000000001894      0x178 fifo.o
                0x0000000000001894                fifo32_init
                0x00000000000018db                fifo32_put
                0x0000000000001988                fifo32_get
                0x00000000000019f7                fifo32_status
 .text          0x0000000000001a0c      0x2ca file.o
                0x0000000000001a0c                file_readfat
                0x0000000000001abc                file_loadfile
                0x0000000000001b64                file_search
 .text          0x0000000000001cd6      0x66c graphic.o
                0x0000000000001cd6                init_palette
                0x0000000000001cf3                set_palette
                0x0000000000001da0                boxfill8
                0x0000000000001df2                init_screen8
                0x000000000000200f                init_mouse_cursor8
                0x00000000000020e9                putfont8
                0x00000000000021eb                putfonts8_asc
                0x000000000000223a                putblock8_8
                0x00000000000022a9                putfonts8_asc_sht
 .text          0x0000000000002342        0x0 hankaku.o
 .text          0x0000000000002342       0xf3 int.o
                0x0000000000002342                init_pic
                0x000000000000241d                inthandler27
 .text          0x0000000000002435       0xa6 keyboard.o
                0x0000000000002435                inthandler21
                0x000000000000247a                wait_KBC_sendready
                0x000000000000249a                init_keyboard
 .text          0x00000000000024db       0xcc libs.o
                0x00000000000024db                strcmp
                0x000000000000251a                strncmp
 .text          0x00000000000025a7      0x542 memory.o
                0x00000000000025a7                memtest
                0x000000000000265e                memtest_sub
                0x00000000000026ef                memman_init
                0x000000000000271c                memman_total
                0x0000000000002755                memman_alloc
                0x000000000000283e                memman_alloc_4k
                0x000000000000286a                memman_free
                0x0000000000002aba                memman_free_4k
 .text          0x0000000000002ae9      0x1e4 mouse.o
                0x0000000000002ae9                inthandler2c
                0x0000000000002b40                enable_mouse
                0x0000000000002b8e                mouse_decode
 .text          0x0000000000002ccd      0x630 mtask.o
                0x0000000000002ccd                task_now
                0x0000000000002cfd                task_add
                0x0000000000002d46                task_remove
                0x0000000000002e03                task_switchsub
                0x0000000000002e4f                task_idle
                0x0000000000002e5c                task_init
                0x0000000000003061                task_alloc
                0x0000000000003171                task_run
                0x00000000000031de                task_sleep
                0x000000000000322e                task_switch
 *fill*         0x00000000000032fd        0x3 
 .text          0x0000000000003300       0xff nasmfunc.o
                0x0000000000003300                io_hlt
                0x0000000000003302                io_cli
                0x0000000000003304                io_sti
                0x0000000000003306                io_stihlt
                0x0000000000003309                io_in8
                0x0000000000003314                io_in16
                0x0000000000003320                io_in32
                0x0000000000003326                io_out8
                0x0000000000003330                io_out16
                0x000000000000333c                io_out32
                0x0000000000003346                io_load_eflags
                0x0000000000003349                io_store_eflags
                0x0000000000003350                load_gdtr
                0x0000000000003360                load_idtr
                0x0000000000003370                asm_inthandler20
                0x0000000000003387                asm_inthandler21
                0x000000000000339e                asm_inthandler27
                0x00000000000033b5                asm_inthandler2c
                0x00000000000033cc                load_cr0
                0x00000000000033d0                store_cr0
                0x00000000000033d8                load_tr
                0x00000000000033de                farjmp
                0x00000000000033e3                farcall
                0x00000000000033e8                asm_cons_putchar
 .text          0x00000000000033ff      0xa29 sheet.o
                0x00000000000033ff                shtctl_init
                0x00000000000034e6                sheet_alloc
                0x000000000000355d                sheet_setbuf
                0x0000000000003586                sheet_refreshmap
                0x000000000000373a                sheet_refreshsub
                0x0000000000003906                sheet_updown
                0x0000000000003c7d                sheet_refresh
                0x0000000000003cee                sheet_slide
                0x0000000000003e01                sheet_free
 .text          0x0000000000003e28      0x29a timer.o
                0x0000000000003e28                init_pit
                0x0000000000003ed0                timer_alloc
                0x0000000000003f3a                timer_free
                0x0000000000003f4a                timer_init
                0x0000000000003f62                timer_settime
                0x0000000000004011                inthandler20
 .text          0x00000000000040c2      0x3d8 tsprintf.o
                0x00000000000040c2                tsprintf
                0x0000000000004266                strcls
                0x0000000000004284                int2char
                0x000000000000429d                int2hex
                0x0000000000004386                figure
                0x00000000000043e6                int2dec
                0x0000000000004468                int2str
 .text          0x000000000000449a      0x469 window.o
                0x000000000000449a                make_window8
                0x000000000000460c                make_wtitle8
                0x0000000000004704                make_textbox8

.data           0x0000000000310000     0x2296 load address 0x0000000000004903
 *(.data)
 .data          0x0000000000310000      0x100 bootpack.o
 .data          0x0000000000310100      0x100 console.o
 .data          0x0000000000310200      0x100 dsctbl.o
 .data          0x0000000000310300      0x100 fifo.o
 .data          0x0000000000310400      0x100 file.o
 .data          0x0000000000310500      0x240 graphic.o
 .data          0x0000000000310740     0x1000 hankaku.o
                0x0000000000310740                hankaku
 .data          0x0000000000311740      0x100 int.o
 .data          0x0000000000311840      0x100 keyboard.o
 .data          0x0000000000311940      0x100 libs.o
 .data          0x0000000000311a40      0x100 memory.o
 .data          0x0000000000311b40      0x100 mouse.o
 .data          0x0000000000311c40      0x100 mtask.o
 .data          0x0000000000311d40      0x100 sheet.o
 .data          0x0000000000311e40      0x100 timer.o
 .data          0x0000000000311f40      0x100 tsprintf.o
 .data          0x0000000000312040      0x1e0 window.o
 *(.rodata*)
 .rodata        0x0000000000312220       0x14 bootpack.o
 .rodata        0x0000000000312234       0x62 console.o
 *(.bss)
 .bss           0x0000000000312296        0x0 bootpack.o
 .bss           0x0000000000312296        0x0 console.o
 .bss           0x0000000000312296        0x0 dsctbl.o
 .bss           0x0000000000312296        0x0 fifo.o
 .bss           0x0000000000312296        0x0 file.o
 .bss           0x0000000000312296        0x0 graphic.o
 .bss           0x0000000000312296        0x0 hankaku.o
 .bss           0x0000000000312296        0x0 int.o
 .bss           0x0000000000312296        0x0 keyboard.o
 .bss           0x0000000000312296        0x0 libs.o
 .bss           0x0000000000312296        0x0 memory.o
 .bss           0x0000000000312296        0x0 mouse.o
 .bss           0x0000000000312296        0x0 mtask.o
 .bss           0x0000000000312296        0x0 sheet.o
 .bss           0x0000000000312296        0x0 timer.o
 .bss           0x0000000000312296        0x0 tsprintf.o
 .bss           0x0000000000312296        0x0 window.o

/DISCARD/
 *(.eh_frame)
LOAD bootpack.o
LOAD console.o
LOAD dsctbl.o
LOAD fifo.o
LOAD file.o
LOAD graphic.o
LOAD hankaku.o
LOAD int.o
LOAD keyboard.o
LOAD libs.o
LOAD memory.o
LOAD mouse.o
LOAD mtask.o
LOAD nasmfunc.o
LOAD sheet.o
LOAD timer.o
LOAD tsprintf.o
LOAD window.o
OUTPUT(bootpack.bin binary)

.comment        0x0000000000000000      0x2db
 .comment       0x0000000000000000       0x2b bootpack.o
 .comment       0x000000000000002b       0x2b console.o
 .comment       0x0000000000000056       0x2b dsctbl.o
 .comment       0x0000000000000081       0x2b fifo.o
 .comment       0x00000000000000ac       0x2b file.o
 .comment       0x00000000000000d7       0x2b graphic.o
 .comment       0x0000000000000102       0x2b hankaku.o
 .comment       0x000000000000012d       0x2b int.o
 .comment       0x0000000000000158       0x2b keyboard.o
 .comment       0x0000000000000183       0x2b libs.o
 .comment       0x00000000000001ae       0x2b memory.o
 .comment       0x00000000000001d9       0x2b mouse.o
 .comment       0x0000000000000204       0x2b mtask.o
 .comment       0x000000000000022f       0x2b sheet.o
 .comment       0x000000000000025a       0x2b timer.o
 .comment       0x0000000000000285       0x2b tsprintf.o
 .comment       0x00000000000002b0       0x2b window.o

.note.GNU-stack
                0x0000000000000000        0x0
 .note.GNU-stack
                0x0000000000000000        0x0 bootpack.o
 .note.GNU-stack
                0x0000000000000000        0x0 console.o
 .note.GNU-stack
                0x0000000000000000        0x0 dsctbl.o
 .note.GNU-stack
                0x0000000000000000        0x0 fifo.o
 .note.GNU-stack
                0x0000000000000000        0x0 file.o
 .note.GNU-stack
                0x0000000000000000        0x0 graphic.o
 .note.GNU-stack
                0x0000000000000000        0x0 hankaku.o
 .note.GNU-stack
                0x0000000000000000        0x0 int.o
 .note.GNU-stack
                0x0000000000000000        0x0 keyboard.o
 .note.GNU-stack
                0x0000000000000000        0x0 libs.o
 .note.GNU-stack
                0x0000000000000000        0x0 memory.o
 .note.GNU-stack
                0x0000000000000000        0x0 mouse.o
 .note.GNU-stack
                0x0000000000000000        0x0 mtask.o
 .note.GNU-stack
                0x0000000000000000        0x0 sheet.o
 .note.GNU-stack
                0x0000000000000000        0x0 timer.o
 .note.GNU-stack
                0x0000000000000000        0x0 tsprintf.o
 .note.GNU-stack
                0x0000000000000000        0x0 window.o

.bss            0x00000000003122a0     0x273c load address 0x0000000000006bc0
 COMMON         0x00000000003122a0        0x8 keyboard.o
                0x00000000003122a0                keyfifo
                0x00000000003122a4                keydata0
 COMMON         0x00000000003122a8        0x8 mouse.o
                0x00000000003122a8                mousedata0
                0x00000000003122ac                mousefifo
 COMMON         0x00000000003122b0        0x8 mtask.o
                0x00000000003122b0                taskctl
                0x00000000003122b4                task_timer
 *fill*         0x00000000003122b8        0x8 
 COMMON         0x00000000003122c0     0x271c timer.o
                0x00000000003122c0                timerctl
